target datalayout = "e-m:e-p270:32:32-p271:32:32-p272:64:64-i64:64-i128:128-f80:128-n8:16:32:64-S128"
target triple = "x86_64-pc-linux-gnu"

%struct.pmix_mca_base_framework_t = type { ptr, ptr, ptr, ptr, ptr, ptr, i32, i32, ptr, ptr, i32, i32, %struct.pmix_list_t, %struct.pmix_list_t }
%struct.pmix_list_t = type { %struct.pmix_object_t, %struct.pmix_list_item_t, i64 }
%struct.pmix_object_t = type { %union.pthread_mutex_t, ptr, i32, %struct.pmix_tma }
%union.pthread_mutex_t = type { %struct.__pthread_mutex_s }
%struct.__pthread_mutex_s = type { i32, i32, i32, i32, i32, i16, i16, %struct.__pthread_internal_list }
%struct.__pthread_internal_list = type { ptr, ptr }
%struct.pmix_tma = type { ptr, ptr, ptr, ptr, ptr, ptr, ptr, ptr }
%struct.pmix_list_item_t = type { %struct.pmix_object_t, ptr, ptr, i32 }
%struct.pmix_output_desc_t = type { i8, i8, i32, i8, i32, ptr, ptr, i32, ptr, i32, i8, i8, i8, i8, ptr, i32, i32 }
%struct.prte_process_info_t = type { %struct.pmix_proc, %struct.pmix_proc, ptr, %struct.pmix_proc, i32, i32, i32, ptr, ptr, i32, i8, ptr, i16, ptr, ptr, i8, ptr, i8 }
%struct.pmix_proc = type { [256 x i8], i32 }
%struct.prte_schizo_slurm_component_t = type { %struct.pmix_mca_base_component_2_1_0_t, i32 }
%struct.pmix_mca_base_component_2_1_0_t = type { i32, i32, i32, [16 x i8], i32, i32, i32, [32 x i8], i32, i32, i32, [64 x i8], i32, i32, i32, ptr, ptr, ptr, ptr, [32 x i8] }

@.str = private unnamed_addr constant [6 x i8] c"slurm\00", align 1
@prte_schizo_base_framework = external global %struct.pmix_mca_base_framework_t, align 8
@pmix_output_info = external global [0 x %struct.pmix_output_desc_t], align 8
@.str.24 = private unnamed_addr constant [34 x i8] c"%s[%s]: detect proxy with %s (%s)\00", align 1
@prte_process_info = external global %struct.prte_process_info_t, align 8
@.str.25 = private unnamed_addr constant [15 x i8] c"schizo_slurm.c\00", align 1
@.str.26 = private unnamed_addr constant [5 x i8] c"NULL\00", align 1
@prte_tool_basename = external global ptr, align 8
@prte_mca_schizo_slurm_component = external global %struct.prte_schizo_slurm_component_t, align 8
@.str.27 = private unnamed_addr constant [22 x i8] c"PRTE_MCA_schizo_proxy\00", align 1
@.str.28 = private unnamed_addr constant [5 x i8] c"srun\00", align 1

; Function Attrs: nounwind uwtable
define internal i32 @detect_proxy(ptr noundef %0) #0 {
  %2 = alloca i32, align 4
  %3 = alloca ptr, align 8
  %4 = alloca ptr, align 8
  %5 = alloca i32, align 4
  store ptr %0, ptr %3, align 8, !tbaa !11
  call void @llvm.lifetime.start.p0(i64 8, ptr %4) #6
  %6 = load i32, ptr getelementptr inbounds nuw (%struct.pmix_mca_base_framework_t, ptr @prte_schizo_base_framework, i32 0, i32 11), align 4, !tbaa !36
  %7 = icmp sge i32 %6, 0
  br i1 %7, label %8, label %29

8:                                                ; preds = %1
  %9 = load i32, ptr getelementptr inbounds nuw (%struct.pmix_mca_base_framework_t, ptr @prte_schizo_base_framework, i32 0, i32 11), align 4, !tbaa !36
  %10 = icmp slt i32 %9, 64
  br i1 %10, label %11, label %29

11:                                               ; preds = %8
  %12 = load i32, ptr getelementptr inbounds nuw (%struct.pmix_mca_base_framework_t, ptr @prte_schizo_base_framework, i32 0, i32 11), align 4, !tbaa !36
  %13 = sext i32 %12 to i64
  %14 = getelementptr inbounds [0 x %struct.pmix_output_desc_t], ptr @pmix_output_info, i64 0, i64 %13
  %15 = getelementptr inbounds nuw %struct.pmix_output_desc_t, ptr %14, i32 0, i32 2
  %16 = load i32, ptr %15, align 4, !tbaa !39
  %17 = icmp sge i32 %16, 2
  br i1 %17, label %18, label %29

18:                                               ; preds = %11
  %19 = load i32, ptr getelementptr inbounds nuw (%struct.pmix_mca_base_framework_t, ptr @prte_schizo_base_framework, i32 0, i32 11), align 4, !tbaa !36
  %20 = call ptr @prte_util_print_name_args(ptr noundef @prte_process_info)
  %21 = load ptr, ptr %3, align 8, !tbaa !11
  %22 = icmp eq ptr null, %21
  br i1 %22, label %23, label %24

23:                                               ; preds = %18
  br label %26

24:                                               ; preds = %18
  %25 = load ptr, ptr %3, align 8, !tbaa !11
  br label %26

26:                                               ; preds = %24, %23
  %27 = phi ptr [ @.str.26, %23 ], [ %25, %24 ]
  %28 = load ptr, ptr @prte_tool_basename, align 8, !tbaa !11
  call void (i32, ptr, ...) @pmix_output(i32 noundef %19, ptr noundef @.str.24, ptr noundef %20, ptr noundef @.str.25, ptr noundef %27, ptr noundef %28)
  br label %29

29:                                               ; preds = %26, %11, %8, %1
  %30 = load ptr, ptr %3, align 8, !tbaa !11
  %31 = icmp ne ptr null, %30
  br i1 %31, label %32, label %39

32:                                               ; preds = %29
  %33 = load ptr, ptr %3, align 8, !tbaa !11
  %34 = call ptr @strstr(ptr noundef %33, ptr noundef @.str) #7
  %35 = icmp ne ptr null, %34
  br i1 %35, label %36, label %38

36:                                               ; preds = %32
  %37 = load i32, ptr getelementptr inbounds nuw (%struct.prte_schizo_slurm_component_t, ptr @prte_mca_schizo_slurm_component, i32 0, i32 1), align 8, !tbaa !41
  store i32 %37, ptr %2, align 4
  store i32 1, ptr %5, align 4
  br label %54

38:                                               ; preds = %32
  store i32 0, ptr %2, align 4
  store i32 1, ptr %5, align 4
  br label %54

39:                                               ; preds = %29
  %40 = call ptr @getenv(ptr noundef @.str.27) #6
  store ptr %40, ptr %4, align 8, !tbaa !11
  %41 = icmp ne ptr null, %40
  br i1 %41, label %42, label %48

42:                                               ; preds = %39
  %43 = load ptr, ptr %4, align 8, !tbaa !11
  %44 = call i32 @strcmp(ptr noundef %43, ptr noundef @.str) #7
  %45 = icmp eq i32 0, %44
  br i1 %45, label %46, label %47

46:                                               ; preds = %42
  store i32 100, ptr %2, align 4
  store i32 1, ptr %5, align 4
  br label %54

47:                                               ; preds = %42
  store i32 0, ptr %2, align 4
  store i32 1, ptr %5, align 4
  br label %54

48:                                               ; preds = %39
  %49 = load ptr, ptr @prte_tool_basename, align 8, !tbaa !11
  %50 = call i32 @strcmp(ptr noundef %49, ptr noundef @.str.28) #7
  %51 = icmp eq i32 0, %50
  br i1 %51, label %52, label %53

52:                                               ; preds = %48
  store i32 100, ptr %2, align 4
  store i32 1, ptr %5, align 4
  br label %54

53:                                               ; preds = %48
  store i32 0, ptr %2, align 4
  store i32 1, ptr %5, align 4
  br label %54

54:                                               ; preds = %53, %52, %47, %46, %38, %36
  call void @llvm.lifetime.end.p0(i64 8, ptr %4) #6
  %55 = load i32, ptr %2, align 4
  ret i32 %55
}